target datalayout = "e-m:e-p270:32:32-p271:32:32-p272:64:64-i64:64-i128:128-f80:128-n8:16:32:64-S128"
target triple = "x86_64-pc-linux-gnu"

%struct._object = type { %union.anon, ptr }
%union.anon = type { i64 }
%struct.PyVarObject = type { %struct._object, i64 }
%struct._ts = type { ptr, ptr, ptr, i64, %struct.anon.5, i32, i32, i32, i32, i32, i32, i32, i32, ptr, ptr, ptr, ptr, ptr, ptr, ptr, ptr, i32, ptr, i64, i64, ptr, i64, i32, ptr, ptr, ptr, i64, i64, ptr, ptr, ptr, %struct._err_stackitem, ptr, i64, ptr, ptr }
%struct.anon.5 = type { i32 }
%struct._err_stackitem = type { ptr, ptr }

@_Py_tss_tstate = external thread_local global ptr, align 8
@PyExc_ValueError = external global ptr, align 8
@.str.27 = private unnamed_addr constant [15 x i8] c"gc.get_objects\00", align 1
@.str.28 = private unnamed_addr constant [2 x i8] c"n\00", align 1
@.str.29 = private unnamed_addr constant [80 x i8] c"generation parameter must be less than the number of available generations (%i)\00", align 1
@.str.30 = private unnamed_addr constant [40 x i8] c"generation parameter cannot be negative\00", align 1

; Function Attrs: inlinehint nounwind uwtable
define internal ptr @_PyThreadState_GET() #3 {
  %1 = call align 8 ptr @llvm.threadlocal.address.p0(ptr align 8 @_Py_tss_tstate)
  %2 = load ptr, ptr %1, align 8, !tbaa !23
  ret ptr %2
}

; Function Attrs: inlinehint nounwind uwtable
define internal ptr @_PyInterpreterState_GET() #3 {
  %1 = alloca ptr, align 8
  call void @llvm.lifetime.start.p0(i64 8, ptr %1) #7
  %2 = call ptr @_PyThreadState_GET()
  store ptr %2, ptr %1, align 8, !tbaa !23
  %3 = load ptr, ptr %1, align 8, !tbaa !23
  %4 = getelementptr inbounds nuw %struct._ts, ptr %3, i32 0, i32 2
  %5 = load ptr, ptr %4, align 8, !tbaa !25
  call void @llvm.lifetime.end.p0(i64 8, ptr %1) #7
  ret ptr %5
}

; Function Attrs: inlinehint nounwind uwtable
define internal i64 @Py_SIZE(ptr noundef %0) #3 {
  %2 = alloca ptr, align 8
  store ptr %0, ptr %2, align 8, !tbaa !4
  %3 = load ptr, ptr %2, align 8, !tbaa !4
  %4 = getelementptr inbounds nuw %struct.PyVarObject, ptr %3, i32 0, i32 1
  %5 = load i64, ptr %4, align 8, !tbaa !38
  ret i64 %5
}

; Function Attrs: nounwind uwtable
define internal ptr @gc_get_objects_impl(ptr noundef %0, i64 noundef %1) #0 {
  %3 = alloca ptr, align 8
  %4 = alloca ptr, align 8
  %5 = alloca i64, align 8
  %6 = alloca ptr, align 8
  store ptr %0, ptr %4, align 8, !tbaa !4
  store i64 %1, ptr %5, align 8, !tbaa !13
  %7 = load i64, ptr %5, align 8, !tbaa !13
  %8 = call i32 (ptr, ptr, ...) @PySys_Audit(ptr noundef @.str.27, ptr noundef @.str.28, i64 noundef %7)
  %9 = icmp slt i32 %8, 0
  br i1 %9, label %10, label %11

10:                                               ; preds = %2
  store ptr null, ptr %3, align 8
  br label %28

11:                                               ; preds = %2
  %12 = load i64, ptr %5, align 8, !tbaa !13
  %13 = icmp sge i64 %12, 3
  br i1 %13, label %14, label %17

14:                                               ; preds = %11
  %15 = load ptr, ptr @PyExc_ValueError, align 8, !tbaa !4
  %16 = call ptr (ptr, ptr, ...) @PyErr_Format(ptr noundef %15, ptr noundef @.str.29, i32 noundef 3)
  store ptr %16, ptr %3, align 8
  br label %28

17:                                               ; preds = %11
  %18 = load i64, ptr %5, align 8, !tbaa !13
  %19 = icmp slt i64 %18, -1
  br i1 %19, label %20, label %22

20:                                               ; preds = %17
  %21 = load ptr, ptr @PyExc_ValueError, align 8, !tbaa !4
  call void @PyErr_SetString(ptr noundef %21, ptr noundef @.str.30)
  store ptr null, ptr %3, align 8
  br label %28

22:                                               ; preds = %17
  call void @llvm.lifetime.start.p0(i64 8, ptr %6) #7
  %23 = call ptr @_PyInterpreterState_GET()
  store ptr %23, ptr %6, align 8, !tbaa !21
  %24 = load ptr, ptr %6, align 8, !tbaa !21
  %25 = load i64, ptr %5, align 8, !tbaa !13
  %26 = trunc i64 %25 to i32
  %27 = call ptr @_PyGC_GetObjects(ptr noundef %24, i32 noundef %26)
  store ptr %27, ptr %3, align 8
  call void @llvm.lifetime.end.p0(i64 8, ptr %6) #7
  br label %28

28:                                               ; preds = %22, %20, %14, %10
  %29 = load ptr, ptr %3, align 8
  ret ptr %29
}

; Function Attrs: inlinehint nounwind uwtable
define internal i64 @PyTuple_GET_SIZE(ptr noundef %0) #3 {
  %2 = alloca ptr, align 8
  %3 = alloca ptr, align 8
  store ptr %0, ptr %2, align 8, !tbaa !4
  call void @llvm.lifetime.start.p0(i64 8, ptr %3) #7
  %4 = load ptr, ptr %2, align 8, !tbaa !4
  store ptr %4, ptr %3, align 8, !tbaa !35
  %5 = load ptr, ptr %3, align 8, !tbaa !35
  %6 = call i64 @Py_SIZE(ptr noundef %5)
  call void @llvm.lifetime.end.p0(i64 8, ptr %3) #7
  ret i64 %6
}

; Function Attrs: nounwind uwtable
define internal ptr @gc_get_objects(ptr noundef %0, ptr noundef %1, i64 noundef %2, ptr noundef %3) #0 {
  %5 = alloca ptr, align 8
  %6 = alloca ptr, align 8
  %7 = alloca i64, align 8
  %8 = alloca ptr, align 8
  %9 = alloca ptr, align 8
  %10 = alloca [1 x ptr], align 8
  %11 = alloca i64, align 8
  %12 = alloca i64, align 8
  store ptr %0, ptr %5, align 8, !tbaa !4
  store ptr %1, ptr %6, align 8, !tbaa !11
  store i64 %2, ptr %7, align 8, !tbaa !13
  store ptr %3, ptr %8, align 8, !tbaa !4
  call void @llvm.lifetime.start.p0(i64 8, ptr %9) #7
  store ptr null, ptr %9, align 8, !tbaa !4
  call void @llvm.lifetime.start.p0(i64 8, ptr %10) #7
  call void @llvm.lifetime.start.p0(i64 8, ptr %11) #7
  %13 = load i64, ptr %7, align 8, !tbaa !13
  %14 = load ptr, ptr %8, align 8, !tbaa !4
  %15 = icmp ne ptr %14, null
  br i1 %15, label %16, label %19

16:                                               ; preds = %4
  %17 = load ptr, ptr %8, align 8, !tbaa !4
  %18 = call i64 @PyTuple_GET_SIZE(ptr noundef %17)
  br label %20

19:                                               ; preds = %4
  br label %20

20:                                               ; preds = %19, %16
  %21 = phi i64 [ %18, %16 ], [ 0, %19 ]
  %22 = add i64 %13, %21
  %23 = sub i64 %22, 0
  store i64 %23, ptr %11, align 8, !tbaa !13
  call void @llvm.lifetime.start.p0(i64 8, ptr %12) #7
  store i64 -1, ptr %12, align 8, !tbaa !13
  %24 = load ptr, ptr %8, align 8, !tbaa !4
  %25 = icmp eq ptr %24, null
  br i1 %25, label %26, label %37

26:                                               ; preds = %20
  %27 = load i64, ptr %7, align 8, !tbaa !13
  %28 = icmp sle i64 0, %27
  br i1 %28, label %29, label %37

29:                                               ; preds = %26
  %30 = load i64, ptr %7, align 8, !tbaa !13
  %31 = icmp sle i64 %30, 1
  br i1 %31, label %32, label %37

32:                                               ; preds = %29
  %33 = load ptr, ptr %6, align 8, !tbaa !11
  %34 = icmp ne ptr %33, null
  br i1 %34, label %35, label %37

35:                                               ; preds = %32
  %36 = load ptr, ptr %6, align 8, !tbaa !11
  br label %43

37:                                               ; preds = %32, %29, %26, %20
  %38 = load ptr, ptr %6, align 8, !tbaa !11
  %39 = load i64, ptr %7, align 8, !tbaa !13
  %40 = load ptr, ptr %8, align 8, !tbaa !4
  %41 = getelementptr inbounds [1 x ptr], ptr %10, i64 0, i64 0
  %42 = call ptr @_PyArg_UnpackKeywords(ptr noundef %38, i64 noundef %39, ptr noundef null, ptr noundef %40, ptr noundef @gc_get_objects._parser, i32 noundef 0, i32 noundef 1, i32 noundef 0, i32 noundef 0, ptr noundef %41)
  br label %43

43:                                               ; preds = %37, %35
  %44 = phi ptr [ %36, %35 ], [ %42, %37 ]
  store ptr %44, ptr %6, align 8, !tbaa !11
  %45 = load ptr, ptr %6, align 8, !tbaa !11
  %46 = icmp ne ptr %45, null
  br i1 %46, label %48, label %47

47:                                               ; preds = %43
  br label %64

48:                                               ; preds = %43
  %49 = load i64, ptr %11, align 8, !tbaa !13
  %50 = icmp ne i64 %49, 0
  br i1 %50, label %52, label %51

51:                                               ; preds = %48
  br label %60

52:                                               ; preds = %48
  %53 = load ptr, ptr %6, align 8, !tbaa !11
  %54 = getelementptr ptr, ptr %53, i64 0
  %55 = load ptr, ptr %54, align 8, !tbaa !4
  %56 = call i32 @_Py_convert_optional_to_ssize_t(ptr noundef %55, ptr noundef %12)
  %57 = icmp ne i32 %56, 0
  br i1 %57, label %59, label %58

58:                                               ; preds = %52
  br label %64

59:                                               ; preds = %52
  br label %60

60:                                               ; preds = %59, %51
  %61 = load ptr, ptr %5, align 8, !tbaa !4
  %62 = load i64, ptr %12, align 8, !tbaa !13
  %63 = call ptr @gc_get_objects_impl(ptr noundef %61, i64 noundef %62)
  store ptr %63, ptr %9, align 8, !tbaa !4
  br label %64

64:                                               ; preds = %60, %58, %47
  %65 = load ptr, ptr %9, align 8, !tbaa !4
  call void @llvm.lifetime.end.p0(i64 8, ptr %12) #7
  call void @llvm.lifetime.end.p0(i64 8, ptr %11) #7
  call void @llvm.lifetime.end.p0(i64 8, ptr %10) #7
  call void @llvm.lifetime.end.p0(i64 8, ptr %9) #7
  ret ptr %65
}