; Function Attrs: nounwind uwtable
define internal ptr @gc_get_objects(ptr readnone captures(none) %0, ptr noundef %1, i64 noundef %2, ptr noundef %3) #0 {
  %5 = alloca [1 x ptr], align 8
  %6 = alloca i64, align 8
  call void @llvm.lifetime.start.p0(i64 8, ptr nonnull %5) #5
  %.not = icmp eq ptr %3, null
  br i1 %.not, label %8, label %.thread

.thread:                                          ; preds = %4
  %7 = getelementptr i8, ptr %3, i64 16
  %.val = load i64, ptr %7, align 8, !tbaa !29
  call void @llvm.lifetime.start.p0(i64 8, ptr nonnull %6) #5
  store i64 -1, ptr %6, align 8, !tbaa !36
  br label %11

8:                                                ; preds = %4
  call void @llvm.lifetime.start.p0(i64 8, ptr nonnull %6) #5
  store i64 -1, ptr %6, align 8, !tbaa !36
  %9 = icmp ult i64 %2, 2
  %10 = icmp ne ptr %1, null
  %or.cond5 = and i1 %10, %9
  br i1 %or.cond5, label %.thread28, label %11

11:                                               ; preds = %8, %.thread
  %12 = phi i64 [ %.val, %.thread ], [ 0, %8 ]
  %13 = call ptr @_PyArg_UnpackKeywords(ptr noundef %1, i64 noundef %2, ptr noundef null, ptr noundef %3, ptr noundef nonnull @gc_get_objects._parser, i32 noundef 0, i32 noundef 1, i32 noundef 0, i32 noundef 0, ptr noundef nonnull %5) #5
  %.not23 = icmp eq ptr %13, null
  br i1 %.not23, label %gc_get_objects_impl.exit, label %.thread28

.thread28:                                        ; preds = %8, %11
  %14 = phi ptr [ %13, %11 ], [ %1, %8 ]
  %15 = phi i64 [ %12, %11 ], [ 0, %8 ]
  %16 = sub i64 0, %15
  %.not24 = icmp eq i64 %2, %16
  br i1 %.not24, label %.thread30, label %17

17:                                               ; preds = %.thread28
  %18 = load ptr, ptr %14, align 8, !tbaa !35
  %19 = call i32 @_Py_convert_optional_to_ssize_t(ptr noundef %18, ptr noundef nonnull %6) #5
  %.not25 = icmp eq i32 %19, 0
  br i1 %.not25, label %gc_get_objects_impl.exit, label %20

20:                                               ; preds = %17
  %.pre = load i64, ptr %6, align 8, !tbaa !36
  %21 = call i32 (ptr, ptr, ...) @PySys_Audit(ptr noundef nonnull @.str.27, ptr noundef nonnull @.str.28, i64 noundef %.pre) #5
  %22 = icmp slt i32 %21, 0
  br i1 %22, label %gc_get_objects_impl.exit, label %25

.thread30:                                        ; preds = %.thread28
  %23 = call i32 (ptr, ptr, ...) @PySys_Audit(ptr noundef nonnull @.str.27, ptr noundef nonnull @.str.28, i64 noundef -1) #5
  %24 = icmp slt i32 %23, 0
  br i1 %24, label %gc_get_objects_impl.exit, label %.thread32

25:                                               ; preds = %20
  %26 = icmp sgt i64 %.pre, 2
  br i1 %26, label %27, label %30

27:                                               ; preds = %25
  %28 = load ptr, ptr @PyExc_ValueError, align 8, !tbaa !35
  %29 = call ptr (ptr, ptr, ...) @PyErr_Format(ptr noundef %28, ptr noundef nonnull @.str.29, i32 noundef 3) #5
  br label %gc_get_objects_impl.exit

30:                                               ; preds = %25
  %31 = icmp slt i64 %.pre, -1
  br i1 %31, label %32, label %.thread32

32:                                               ; preds = %30
  %33 = load ptr, ptr @PyExc_ValueError, align 8, !tbaa !35
  call void @PyErr_SetString(ptr noundef %33, ptr noundef nonnull @.str.30) #5
  br label %gc_get_objects_impl.exit

.thread32:                                        ; preds = %.thread30, %30
  %34 = phi i64 [ %.pre, %30 ], [ -1, %.thread30 ]
  %35 = call align 8 ptr @llvm.threadlocal.address.p0(ptr align 8 @_Py_tss_tstate)
  %36 = load ptr, ptr %35, align 8, !tbaa !4
  %37 = getelementptr inbounds nuw i8, ptr %36, i64 16
  %38 = load ptr, ptr %37, align 8, !tbaa !9
  %39 = trunc nsw i64 %34 to i32
  %40 = call ptr @_PyGC_GetObjects(ptr noundef %38, i32 noundef %39) #5
  br label %gc_get_objects_impl.exit

gc_get_objects_impl.exit:                         ; preds = %.thread30, %.thread32, %32, %27, %20, %17, %11
  %.0 = phi ptr [ null, %17 ], [ null, %11 ], [ %29, %27 ], [ null, %32 ], [ %40, %.thread32 ], [ null, %20 ], [ null, %.thread30 ]
  call void @llvm.lifetime.end.p0(i64 8, ptr nonnull %6) #5
  call void @llvm.lifetime.end.p0(i64 8, ptr nonnull %5) #5
  ret ptr %.0
}